ccopy_reg
_reconstructor
p0
(cnltk.classify.naivebayes
NaiveBayesClassifier
p1
c__builtin__
object
p2
Ntp3
Rp4
(dp5
S'_labels'
p6
(lp7
S'0'
p8
aS'1'
p9
asS'_feature_probdist'
p10
(dp11
(g9
S'sentiment'
p12
tp13
g0
(cnltk.probability
ELEProbDist
p14
g2
Ntp15
Rp16
(dp17
S'_gamma'
p18
F0.5
sS'_N'
p19
I432
sS'_freqdist'
p20
g0
(cnltk.probability
FreqDist
p21
c__builtin__
dict
p22
(dp23
F0.875
I17
sF0.25
I70
sF2.0
I2
sF3.0
I10
sF0.625
I12
sF1.0
I7
sF0.5
I97
sF0.9
I5
sF1.15
I2
sF1.025
I3
sF0.4
I25
sF0.75
I28
sF1.125
I9
sF2.625
I1
sF0.0
I32
sF1.4
I2
sF0.525
I2
sF1.5
I9
sF1.625
I1
sF0.65
I1
sF1.875
I1
sF1.375
I1
sF1.25
I16
sF0.775
I2
sF1.75
I1
sF1.8
I1
sF1.55
I1
sF1.65
I2
sF3.25
I1
sF2.125
I1
sF1.675
I1
sF0.8
I1
sF1.6
I1
sF1.05
I2
sF0.125
I3
sF0.375
I62
stp24
Rp25
(dp26
g19
I432
sS'_max_cache'
p27
NsS'_item_cache'
p28
NsS'_Nr_cache'
p29
NsbsS'_bins'
p30
I43
sS'_divisor'
p31
F453.5
sbs(g8
g12
tp32
g0
(g14
g2
Ntp33
Rp34
(dp35
g18
F0.5
sg19
I491
sg20
g0
(g21
g22
(dp36
F0.5
I40
sF0.0
I298
sF0.25
I21
sF1.0
I5
sF1.2000000000000002
I1
sF0.875
I7
sF1.15
I1
sF1.4
I2
sF0.125
I34
sF0.625
I6
sF0.75
I16
sF1.525
I1
sF1.425
I1
sF0.4
I9
sF0.8
I2
sF0.775
I1
sF0.65
I1
sF1.125
I3
sF0.9
I1
sF1.175
I1
sF0.525
I1
sF1.3
I3
sF0.375
I30
sF0.925
I1
sF1.25
I3
sF1.375
I2
stp37
Rp38
(dp39
g19
I491
sg27
Nsg28
Nsg29
Nsbsg30
I43
sg31
F512.5
sbs(g8
S'question'
p40
tp41
g0
(g14
g2
Ntp42
Rp43
(dp44
g18
F0.5
sg19
I491
sg20
g0
(g21
g22
(dp45
I0
I441
sI1
I50
stp46
Rp47
(dp48
g19
I491
sg27
Nsg28
Nsg29
Nsbsg30
I3
sg31
F492.5
sbs(g9
g40
tp49
g0
(g14
g2
Ntp50
Rp51
(dp52
g18
F0.5
sg19
I432
sg20
g0
(g21
g22
(dp53
I0
I386
sI1
I46
stp54
Rp55
(dp56
g19
I432
sg27
Nsg28
Nsg29
Nsbsg30
I3
sg31
F433.5
sbssS'_label_probdist'
p57
g0
(g14
g2
Ntp58
Rp59
(dp60
g18
F0.5
sg19
I923
sg20
g0
(g21
g22
(dp61
g9
I432
sg8
I491
stp62
Rp63
(dp64
g19
I923
sg27
Nsg28
(lp65
(g8
I491
tp66
a(g9
I432
tp67
asg29
Nsbsg30
I2
sg31
F924.0
sbsb.