ccopy_reg
_reconstructor
p0
(cnltk.classify.naivebayes
NaiveBayesClassifier
p1
c__builtin__
object
p2
Ntp3
Rp4
(dp5
S'_labels'
p6
(lp7
S'2'
p8
aS'1'
p9
asS'_feature_probdist'
p10
(dp11
(g8
S'positive'
p12
tp13
g0
(cnltk.probability
ELEProbDist
p14
g2
Ntp15
Rp16
(dp17
S'_gamma'
p18
F0.5
sS'_N'
p19
I258
sS'_freqdist'
p20
g0
(cnltk.probability
FreqDist
p21
c__builtin__
dict
p22
(dp23
F0.5
I39
sF0.375
I34
sF2.0
I1
sF3.0
I10
sF0.0
I21
sF1.0
I4
sF0.4
I17
sF1.55
I1
sF0.75
I19
sF0.9
I5
sF1.15
I2
sF1.65
I1
sF1.025
I1
sF0.625
I3
sF1.125
I2
sF2.125
I1
sF0.875
I11
sF1.4
I1
sF1.05
I2
sF1.25
I13
sF0.775
I2
sF1.6
I1
sF0.65
I2
sF1.675
I1
sF0.125
I1
sF1.875
I1
sF0.525
I1
sF0.25
I57
sF0.8
I1
sF1.5
I1
sF1.375
I2
stp24
Rp25
(dp26
g19
I258
sS'_max_cache'
p27
NsS'_item_cache'
p28
NsS'_Nr_cache'
p29
NsbsS'_bins'
p30
I33
sS'_divisor'
p31
F274.5
sbs(g9
g12
tp32
g0
(g14
g2
Ntp33
Rp34
(dp35
g18
F0.5
sg19
I174
sg20
g0
(g21
g22
(dp36
F0.625
I1
sF0.0
I144
sF0.4
I2
sF1.3
I1
sF0.525
I1
sF0.125
I19
sF0.375
I1
sF0.75
I2
sF0.25
I3
stp37
Rp38
(dp39
g19
I174
sg27
Nsg28
Nsg29
Nsbsg30
I33
sg31
F190.5
sbs(g8
S'question'
p40
tp41
g0
(g14
g2
Ntp42
Rp43
(dp44
g18
F0.5
sg19
I258
sg20
g0
(g21
g22
(dp45
I0
I236
sI1
I22
stp46
Rp47
(dp48
g19
I258
sg27
Nsg28
Nsg29
Nsbsg30
I3
sg31
F259.5
sbs(g8
S'negative'
p49
tp50
g0
(g14
g2
Ntp51
Rp52
(dp53
g18
F0.5
sg19
I258
sg20
g0
(g21
g22
(dp54
F0.0
I239
sF0.75
I4
sF0.375
I5
sF0.125
I1
sF0.5
I9
stp55
Rp56
(dp57
g19
I258
sg27
Nsg28
Nsg29
Nsbsg30
I16
sg31
F266.0
sbs(g9
g49
tp58
g0
(g14
g2
Ntp59
Rp60
(dp61
g18
F0.5
sg19
I174
sg20
g0
(g21
g22
(dp62
F0.25
I21
sF0.5
I71
sF0.75
I11
sF1.25
I3
sF0.4
I8
sF1.0
I3
sF0.875
I3
sF1.5
I8
sF0.9
I1
sF0.125
I2
sF0.375
I17
sF0.625
I2
sF1.125
I4
sF2.5
I1
sF0.0
I19
stp63
Rp64
(dp65
g19
I174
sg27
Nsg28
Nsg29
Nsbsg30
I16
sg31
F182.0
sbs(g9
g40
tp66
g0
(g14
g2
Ntp67
Rp68
(dp69
g18
F0.5
sg19
I174
sg20
g0
(g21
g22
(dp70
I0
I150
sI1
I24
stp71
Rp72
(dp73
g19
I174
sg27
Nsg28
Nsg29
Nsbsg30
I3
sg31
F175.5
sbssS'_label_probdist'
p74
g0
(g14
g2
Ntp75
Rp76
(dp77
g18
F0.5
sg19
I432
sg20
g0
(g21
g22
(dp78
g9
I174
sg8
I258
stp79
Rp80
(dp81
g19
I432
sg27
Nsg28
(lp82
(g8
I258
tp83
a(g9
I174
tp84
asg29
Nsbsg30
I2
sg31
F433.0
sbsb.